target datalayout = "e-m:e-p270:32:32-p271:32:32-p272:64:64-i64:64-i128:128-f80:128-n8:16:32:64-S128"
target triple = "x86_64-pc-linux-gnu"

%struct.jpeg_error_mgr = type { ptr, ptr, ptr, ptr, ptr, i32, %union.anon, i32, i64, ptr, i32, ptr, i32, i32 }
%union.anon = type { [8 x i32], [48 x i8] }
%struct.jpeg_common_struct = type { ptr, ptr, ptr, ptr, i32, i32 }

@_ZTISt13runtime_error = external constant ptr

; Function Attrs: mustprogress ssp uwtable
define internal void @_ZN6open3d1t2io12_GLOBAL__N_116jpeg_error_throwEP18jpeg_common_struct(ptr noundef %0) #3 personality ptr @__gxx_personality_v0 {
  %2 = alloca ptr, align 8
  %3 = alloca [200 x i8], align 16
  %4 = alloca ptr, align 8
  %5 = alloca i32, align 4
  store ptr %0, ptr %2, align 8, !tbaa !84
  %6 = load ptr, ptr %2, align 8, !tbaa !84
  %7 = getelementptr inbounds nuw %struct.jpeg_common_struct, ptr %6, i32 0, i32 4
  %8 = load i32, ptr %7, align 8, !tbaa !86
  %9 = icmp ne i32 %8, 0
  br i1 %9, label %10, label %12

10:                                               ; preds = %1
  %11 = load ptr, ptr %2, align 8, !tbaa !84
  call void @jpeg_destroy_decompress(ptr noundef %11)
  br label %14

12:                                               ; preds = %1
  %13 = load ptr, ptr %2, align 8, !tbaa !84
  call void @jpeg_destroy_compress(ptr noundef %13)
  br label %14

14:                                               ; preds = %12, %10
  call void @llvm.lifetime.start.p0(i64 200, ptr %3) #26
  %15 = load ptr, ptr %2, align 8, !tbaa !84
  %16 = getelementptr inbounds nuw %struct.jpeg_common_struct, ptr %15, i32 0, i32 0
  %17 = load ptr, ptr %16, align 8, !tbaa !88
  %18 = getelementptr inbounds nuw %struct.jpeg_error_mgr, ptr %17, i32 0, i32 3
  %19 = load ptr, ptr %18, align 8, !tbaa !89
  %20 = load ptr, ptr %2, align 8, !tbaa !84
  %21 = getelementptr inbounds [200 x i8], ptr %3, i64 0, i64 0
  call void %19(ptr noundef %20, ptr noundef %21)
  %22 = call ptr @__cxa_allocate_exception(i64 16) #26
  %23 = getelementptr inbounds [200 x i8], ptr %3, i64 0, i64 0
  invoke void @_ZNSt13runtime_errorC1EPKc(ptr noundef nonnull align 8 dereferenceable(16) %22, ptr noundef %23)
          to label %24 unwind label %25

24:                                               ; preds = %14
  call void @__cxa_throw(ptr %22, ptr @_ZTISt13runtime_error, ptr @_ZNSt13runtime_errorD1Ev) #28
  unreachable

25:                                               ; preds = %14
  %26 = landingpad { ptr, i32 }
          cleanup
  %27 = extractvalue { ptr, i32 } %26, 0
  store ptr %27, ptr %4, align 8
  %28 = extractvalue { ptr, i32 } %26, 1
  store i32 %28, ptr %5, align 4
  call void @__cxa_free_exception(ptr %22) #26
  call void @llvm.lifetime.end.p0(i64 200, ptr %3) #26
  br label %29

29:                                               ; preds = %25
  %30 = load ptr, ptr %4, align 8
  %31 = load i32, ptr %5, align 4
  %32 = insertvalue { ptr, i32 } poison, ptr %30, 0
  %33 = insertvalue { ptr, i32 } %32, i32 %31, 1
  resume { ptr, i32 } %33
}