; Function Attrs: mustprogress noreturn ssp uwtable
define internal void @_ZN6open3d1t2io12_GLOBAL__N_116jpeg_error_throwEP18jpeg_common_struct(ptr noundef %0) #3 personality ptr @__gxx_personality_v0 {
  %2 = alloca [200 x i8], align 16
  %3 = getelementptr inbounds nuw i8, ptr %0, i64 32
  %4 = load i32, ptr %3, align 8, !tbaa !82
  %.not = icmp eq i32 %4, 0
  br i1 %.not, label %6, label %5

5:                                                ; preds = %1
  tail call void @jpeg_destroy_decompress(ptr noundef nonnull %0)
  br label %7

6:                                                ; preds = %1
  tail call void @jpeg_destroy_compress(ptr noundef nonnull %0)
  br label %7

7:                                                ; preds = %6, %5
  call void @llvm.lifetime.start.p0(i64 200, ptr nonnull %2) #30
  %8 = load ptr, ptr %0, align 8, !tbaa !84
  %9 = getelementptr inbounds nuw i8, ptr %8, i64 24
  %10 = load ptr, ptr %9, align 8, !tbaa !85
  call void %10(ptr noundef nonnull %0, ptr noundef nonnull %2)
  %11 = call ptr @__cxa_allocate_exception(i64 16) #30
  invoke void @_ZNSt13runtime_errorC1EPKc(ptr noundef nonnull align 8 dereferenceable(16) %11, ptr noundef nonnull %2)
          to label %12 unwind label %13

12:                                               ; preds = %7
  call void @__cxa_throw(ptr nonnull %11, ptr nonnull @_ZTISt13runtime_error, ptr nonnull @_ZNSt13runtime_errorD1Ev) #33
  unreachable

13:                                               ; preds = %7
  %14 = landingpad { ptr, i32 }
          cleanup
  call void @__cxa_free_exception(ptr nonnull %11) #30
  call void @llvm.lifetime.end.p0(i64 200, ptr nonnull %2) #30
  resume { ptr, i32 } %14
}